; Function Attrs: nounwind uwtable
define internal void @preload_error_cb(i32 noundef %0, ptr readnone captures(none) %1, i32 %2, ptr readnone captures(none) %3) #0 {
  %5 = and i32 %0, 4437
  %.not = icmp eq i32 %5, 0
  br i1 %.not, label %7, label %6

6:                                                ; preds = %4
  tail call void @_zend_bailout(ptr noundef nonnull @.str.27, i32 noundef 3916) #31
  unreachable

7:                                                ; preds = %4
  ret void
}